(lp0
(lp1
(S' '
p2
I95
tp3
aa(lp4
(g2
I14
tp5
a(S'#'
p6
I5
tp7
a(g2
I70
tp8
a(g6
I5
tp9
a(g2
I1
tp10
aa(lp11
(g2
I15
tp12
a(g6
I4
tp13
a(g2
I71
tp14
a(g6
I4
tp15
a(g2
I1
tp16
aa(lp17
(g2
I15
tp18
a(g6
I4
tp19
a(g2
I71
tp20
a(g6
I4
tp21
a(g2
I1
tp22
aa.